target datalayout = "e-m:e-p270:32:32-p271:32:32-p272:64:64-i64:64-i128:128-f80:128-n8:16:32:64-S128"
target triple = "x86_64-pc-linux-gnu"

%"class.arrow::Status" = type { ptr }

@.str.19 = private unnamed_addr constant [28 x i8] c"Error writing bytes to file\00", align 1

; Function Attrs: mustprogress nounwind uwtable
define linkonce_odr void @_ZN5arrow6StatusC2Ev(ptr noundef nonnull align 8 dereferenceable(8) %0) unnamed_addr #6 comdat align 2 {
  %2 = alloca ptr, align 8
  store ptr %0, ptr %2, align 8, !tbaa !43
  %3 = load ptr, ptr %2, align 8
  %4 = getelementptr inbounds nuw %"class.arrow::Status", ptr %3, i32 0, i32 0
  store ptr null, ptr %4, align 8, !tbaa !69
  ret void
}

; Function Attrs: mustprogress nounwind uwtable
define linkonce_odr void @_ZN5arrow6Status2OKEv(ptr dead_on_unwind noalias writable sret(%"class.arrow::Status") align 8 %0) #6 comdat align 2 {
  %2 = alloca ptr, align 8
  store ptr %0, ptr %2, align 8
  call void @_ZN5arrow6StatusC2Ev(ptr noundef nonnull align 8 dereferenceable(8) %0) #3
  ret void
}

; Function Attrs: mustprogress uwtable
define linkonce_odr void @_ZN5arrow8internal16IOErrorFromErrnoIJRA28_KcEEENS_6StatusEiDpOT_(ptr dead_on_unwind noalias writable sret(%"class.arrow::Status") align 8 %0, i32 noundef %1, ptr noundef nonnull align 1 dereferenceable(28) %2) #4 comdat {
  %4 = alloca ptr, align 8
  %5 = alloca i32, align 4
  %6 = alloca ptr, align 8
  store ptr %0, ptr %4, align 8
  store i32 %1, ptr %5, align 4, !tbaa !3
  store ptr %2, ptr %6, align 8, !tbaa !12
  %7 = load i32, ptr %5, align 4, !tbaa !3
  %8 = load ptr, ptr %6, align 8, !tbaa !12
  call void @_ZN5arrow8internal15StatusFromErrnoIJRA28_KcEEENS_6StatusEiNS_10StatusCodeEDpOT_(ptr dead_on_unwind writable sret(%"class.arrow::Status") align 8 %0, i32 noundef %7, i8 noundef signext 5, ptr noundef nonnull align 1 dereferenceable(28) %8)
  ret void
}

; Function Attrs: inlinehint mustprogress nounwind uwtable
define linkonce_odr noundef nonnull align 8 dereferenceable(8) ptr @_ZSt3minIlERKT_S2_S2_(ptr noundef nonnull align 8 dereferenceable(8) %0, ptr noundef nonnull align 8 dereferenceable(8) %1) #8 comdat {
  %3 = alloca ptr, align 8
  %4 = alloca ptr, align 8
  %5 = alloca ptr, align 8
  store ptr %0, ptr %4, align 8, !tbaa !182
  store ptr %1, ptr %5, align 8, !tbaa !182
  %6 = load ptr, ptr %5, align 8, !tbaa !182
  %7 = load i64, ptr %6, align 8, !tbaa !62
  %8 = load ptr, ptr %4, align 8, !tbaa !182
  %9 = load i64, ptr %8, align 8, !tbaa !62
  %10 = icmp slt i64 %7, %9
  br i1 %10, label %11, label %13

11:                                               ; preds = %2
  %12 = load ptr, ptr %5, align 8, !tbaa !182
  store ptr %12, ptr %3, align 8
  br label %15

13:                                               ; preds = %2
  %14 = load ptr, ptr %4, align 8, !tbaa !182
  store ptr %14, ptr %3, align 8
  br label %15

15:                                               ; preds = %13, %11
  %16 = load ptr, ptr %3, align 8
  ret ptr %16
}

; Function Attrs: mustprogress uwtable
define void @_ZN5arrow8internal9FileWriteEiPKhl(ptr dead_on_unwind noalias writable sret(%"class.arrow::Status") align 8 %0, i32 noundef %1, ptr noundef %2, i64 noundef %3) #4 {
  %5 = alloca ptr, align 8
  %6 = alloca i32, align 4
  %7 = alloca ptr, align 8
  %8 = alloca i64, align 8
  %9 = alloca i64, align 8
  %10 = alloca i64, align 8
  %11 = alloca i64, align 8
  %12 = alloca i64, align 8
  %13 = alloca i64, align 8
  %14 = alloca i32, align 4
  store ptr %0, ptr %5, align 8
  store i32 %1, ptr %6, align 4, !tbaa !3
  store ptr %2, ptr %7, align 8, !tbaa !12
  store i64 %3, ptr %8, align 8, !tbaa !62
  call void @llvm.lifetime.start.p0(i64 8, ptr %9) #3
  store i64 0, ptr %9, align 8, !tbaa !62
  br label %15

15:                                               ; preds = %50, %48, %4
  %16 = load i64, ptr %9, align 8, !tbaa !62
  %17 = load i64, ptr %8, align 8, !tbaa !62
  %18 = icmp slt i64 %16, %17
  br i1 %18, label %19, label %51

19:                                               ; preds = %15
  call void @llvm.lifetime.start.p0(i64 8, ptr %10) #3
  call void @llvm.lifetime.start.p0(i64 8, ptr %11) #3
  store i64 2147479552, ptr %11, align 8, !tbaa !62
  call void @llvm.lifetime.start.p0(i64 8, ptr %12) #3
  %20 = load i64, ptr %8, align 8, !tbaa !62
  %21 = load i64, ptr %9, align 8, !tbaa !62
  %22 = sub nsw i64 %20, %21
  store i64 %22, ptr %12, align 8, !tbaa !62
  %23 = call noundef nonnull align 8 dereferenceable(8) ptr @_ZSt3minIlERKT_S2_S2_(ptr noundef nonnull align 8 dereferenceable(8) %11, ptr noundef nonnull align 8 dereferenceable(8) %12)
  %24 = load i64, ptr %23, align 8, !tbaa !62
  call void @llvm.lifetime.end.p0(i64 8, ptr %12) #3
  call void @llvm.lifetime.end.p0(i64 8, ptr %11) #3
  store i64 %24, ptr %10, align 8, !tbaa !62
  call void @llvm.lifetime.start.p0(i64 8, ptr %13) #3
  %25 = load i32, ptr %6, align 4, !tbaa !3
  %26 = load ptr, ptr %7, align 8, !tbaa !12
  %27 = load i64, ptr %9, align 8, !tbaa !62
  %28 = getelementptr inbounds i8, ptr %26, i64 %27
  %29 = load i64, ptr %10, align 8, !tbaa !62
  %30 = call i64 @write(i32 noundef %25, ptr noundef %28, i64 noundef %29)
  store i64 %30, ptr %13, align 8, !tbaa !62
  %31 = load i64, ptr %13, align 8, !tbaa !62
  %32 = icmp eq i64 %31, -1
  br i1 %32, label %33, label %38

33:                                               ; preds = %19
  %34 = call ptr @__errno_location() #28
  %35 = load i32, ptr %34, align 4, !tbaa !3
  %36 = icmp eq i32 %35, 4
  br i1 %36, label %37, label %38

37:                                               ; preds = %33
  store i32 2, ptr %14, align 4
  br label %48, !llvm.loop !187

38:                                               ; preds = %33, %19
  %39 = load i64, ptr %13, align 8, !tbaa !62
  %40 = icmp eq i64 %39, -1
  br i1 %40, label %41, label %44

41:                                               ; preds = %38
  %42 = call ptr @__errno_location() #28
  %43 = load i32, ptr %42, align 4, !tbaa !3
  call void @_ZN5arrow8internal16IOErrorFromErrnoIJRA28_KcEEENS_6StatusEiDpOT_(ptr dead_on_unwind writable sret(%"class.arrow::Status") align 8 %0, i32 noundef %43, ptr noundef nonnull align 1 dereferenceable(28) @.str.19)
  store i32 1, ptr %14, align 4
  br label %48

44:                                               ; preds = %38
  %45 = load i64, ptr %13, align 8, !tbaa !62
  %46 = load i64, ptr %9, align 8, !tbaa !62
  %47 = add nsw i64 %46, %45
  store i64 %47, ptr %9, align 8, !tbaa !62
  store i32 0, ptr %14, align 4
  br label %48

48:                                               ; preds = %44, %41, %37
  call void @llvm.lifetime.end.p0(i64 8, ptr %13) #3
  call void @llvm.lifetime.end.p0(i64 8, ptr %10) #3
  %49 = load i32, ptr %14, align 4
  switch i32 %49, label %52 [
    i32 0, label %50
    i32 2, label %15
  ]

50:                                               ; preds = %48
  br label %15, !llvm.loop !187

51:                                               ; preds = %15
  call void @_ZN5arrow6Status2OKEv(ptr dead_on_unwind writable sret(%"class.arrow::Status") align 8 %0)
  store i32 1, ptr %14, align 4
  br label %52

52:                                               ; preds = %51, %48
  call void @llvm.lifetime.end.p0(i64 8, ptr %9) #3
  ret void
}