; Function Attrs: mustprogress uwtable
define void @_ZN5arrow8internal9FileWriteEiPKhl(ptr dead_on_unwind noalias writable sret(%"class.arrow::Status") align 8 %0, i32 noundef %1, ptr noundef readonly captures(none) %2, i64 noundef %3) local_unnamed_addr #3 {
  %5 = icmp sgt i64 %3, 0
  br i1 %5, label %.lr.ph, label %._crit_edge

.lr.ph:                                           ; preds = %4, %15
  %.01220 = phi i64 [ %.1, %15 ], [ 0, %4 ]
  %6 = sub nsw i64 %3, %.01220
  %.sroa.speculated = tail call i64 @llvm.smin.i64(i64 %6, i64 2147479552)
  %7 = getelementptr inbounds i8, ptr %2, i64 %.01220
  %8 = tail call i64 @write(i32 noundef %1, ptr noundef %7, i64 noundef %.sroa.speculated)
  %9 = icmp eq i64 %8, -1
  br i1 %9, label %10, label %.critedge

10:                                               ; preds = %.lr.ph
  %11 = tail call ptr @__errno_location() #42
  %12 = load i32, ptr %11, align 4, !tbaa !38
  %13 = icmp eq i32 %12, 4
  br i1 %13, label %15, label %.thread, !llvm.loop !500

.thread:                                          ; preds = %10
  tail call void @_ZN5arrow8internal15StatusFromErrnoIJRA28_KcEEENS_6StatusEiNS_10StatusCodeEDpOT_(ptr dead_on_unwind writable sret(%"class.arrow::Status") align 8 %0, i32 noundef %12, i8 noundef signext 5, ptr noundef nonnull align 1 dereferenceable(28) @.str.19)
  br label %17

.critedge:                                        ; preds = %.lr.ph
  %14 = add nsw i64 %8, %.01220
  br label %15

15:                                               ; preds = %10, %.critedge
  %.1 = phi i64 [ %14, %.critedge ], [ %.01220, %10 ]
  %16 = icmp slt i64 %.1, %3
  br i1 %16, label %.lr.ph, label %._crit_edge

._crit_edge:                                      ; preds = %15, %4
  store ptr null, ptr %0, align 8, !tbaa !89, !alias.scope !501
  br label %17

17:                                               ; preds = %.thread, %._crit_edge
  ret void
}